target datalayout = "e-m:e-p270:32:32-p271:32:32-p272:64:64-i64:64-i128:128-f80:128-n8:16:32:64-S128"
target triple = "x86_64-pc-linux-gnu"

%struct.evp_test_st = type { %struct.stanza_st, ptr, i32, ptr, ptr, ptr, ptr, ptr, ptr, i32 }
%struct.stanza_st = type { ptr, ptr, i32, i32, i32, i32, i32, i32, [150 x %struct.pair_st], ptr, [32768 x i8] }
%struct.pair_st = type { ptr, ptr }
%struct.pbe_data_st = type { i32, i64, i64, i64, i64, i32, i32, ptr, ptr, i64, ptr, i64, ptr, i64 }

@.str.29 = private unnamed_addr constant [27 x i8] c"../openssl/test/evp_test.c\00", align 1
@.str.134 = private unnamed_addr constant [27 x i8] c"skipping, '%s' is disabled\00", align 1
@.str.412 = private unnamed_addr constant [7 x i8] c"scrypt\00", align 1
@.str.413 = private unnamed_addr constant [7 x i8] c"pbkdf2\00", align 1
@.str.414 = private unnamed_addr constant [7 x i8] c"pkcs12\00", align 1
@.str.415 = private unnamed_addr constant [25 x i8] c"Unknown pbe algorithm %s\00", align 1
@.str.416 = private unnamed_addr constant [37 x i8] c"pdat = OPENSSL_zalloc(sizeof(*pdat))\00", align 1

; Function Attrs: nounwind uwtable
define internal i32 @is_kdf_disabled(ptr noundef %0) #0 {
  %2 = alloca ptr, align 8
  store ptr %0, ptr %2, align 8, !tbaa !4
  ret i32 0
}

; Function Attrs: nounwind uwtable
define internal i32 @pbe_test_init(ptr noundef %0, ptr noundef %1) #0 {
  %3 = alloca i32, align 4
  %4 = alloca ptr, align 8
  %5 = alloca ptr, align 8
  %6 = alloca ptr, align 8
  %7 = alloca i32, align 4
  %8 = alloca i32, align 4
  store ptr %0, ptr %4, align 8, !tbaa !15
  store ptr %1, ptr %5, align 8, !tbaa !4
  call void @llvm.lifetime.start.p0(i64 8, ptr %6) #10
  call void @llvm.lifetime.start.p0(i64 4, ptr %7) #10
  store i32 0, ptr %7, align 4, !tbaa !9
  %9 = load ptr, ptr %5, align 8, !tbaa !4
  %10 = call i32 @is_kdf_disabled(ptr noundef %9)
  %11 = icmp ne i32 %10, 0
  br i1 %11, label %12, label %16

12:                                               ; preds = %2
  %13 = load ptr, ptr %5, align 8, !tbaa !4
  call void (ptr, i32, ptr, ...) @test_info(ptr noundef @.str.29, i32 noundef 3098, ptr noundef @.str.134, ptr noundef %13)
  %14 = load ptr, ptr %4, align 8, !tbaa !15
  %15 = getelementptr inbounds nuw %struct.evp_test_st, ptr %14, i32 0, i32 2
  store i32 1, ptr %15, align 8, !tbaa !24
  store i32 1, ptr %3, align 4
  store i32 1, ptr %8, align 4
  br label %47

16:                                               ; preds = %2
  %17 = load ptr, ptr %5, align 8, !tbaa !4
  %18 = call i32 @strcmp(ptr noundef %17, ptr noundef @.str.412) #11
  %19 = icmp eq i32 %18, 0
  br i1 %19, label %20, label %21

20:                                               ; preds = %16
  store i32 1, ptr %7, align 4, !tbaa !9
  br label %35

21:                                               ; preds = %16
  %22 = load ptr, ptr %5, align 8, !tbaa !4
  %23 = call i32 @strcmp(ptr noundef %22, ptr noundef @.str.413) #11
  %24 = icmp eq i32 %23, 0
  br i1 %24, label %25, label %26

25:                                               ; preds = %21
  store i32 2, ptr %7, align 4, !tbaa !9
  br label %34

26:                                               ; preds = %21
  %27 = load ptr, ptr %5, align 8, !tbaa !4
  %28 = call i32 @strcmp(ptr noundef %27, ptr noundef @.str.414) #11
  %29 = icmp eq i32 %28, 0
  br i1 %29, label %30, label %31

30:                                               ; preds = %26
  store i32 3, ptr %7, align 4, !tbaa !9
  br label %33

31:                                               ; preds = %26
  %32 = load ptr, ptr %5, align 8, !tbaa !4
  call void (ptr, i32, ptr, ...) @test_error(ptr noundef @.str.29, i32 noundef 3109, ptr noundef @.str.415, ptr noundef %32)
  store i32 0, ptr %3, align 4
  store i32 1, ptr %8, align 4
  br label %47

33:                                               ; preds = %30
  br label %34

34:                                               ; preds = %33, %25
  br label %35

35:                                               ; preds = %34, %20
  %36 = call noalias ptr @CRYPTO_zalloc(i64 noundef 104, ptr noundef @.str.29, i32 noundef 3112)
  store ptr %36, ptr %6, align 8, !tbaa !328
  %37 = call i32 @test_ptr(ptr noundef @.str.29, i32 noundef 3112, ptr noundef @.str.416, ptr noundef %36)
  %38 = icmp ne i32 %37, 0
  br i1 %38, label %40, label %39

39:                                               ; preds = %35
  store i32 0, ptr %3, align 4
  store i32 1, ptr %8, align 4
  br label %47

40:                                               ; preds = %35
  %41 = load i32, ptr %7, align 4, !tbaa !9
  %42 = load ptr, ptr %6, align 8, !tbaa !328
  %43 = getelementptr inbounds nuw %struct.pbe_data_st, ptr %42, i32 0, i32 0
  store i32 %41, ptr %43, align 8, !tbaa !330
  %44 = load ptr, ptr %6, align 8, !tbaa !328
  %45 = load ptr, ptr %4, align 8, !tbaa !15
  %46 = getelementptr inbounds nuw %struct.evp_test_st, ptr %45, i32 0, i32 8
  store ptr %44, ptr %46, align 8, !tbaa !66
  store i32 1, ptr %3, align 4
  store i32 1, ptr %8, align 4
  br label %47

47:                                               ; preds = %40, %39, %31, %12
  call void @llvm.lifetime.end.p0(i64 4, ptr %7) #10
  call void @llvm.lifetime.end.p0(i64 8, ptr %6) #10
  %48 = load i32, ptr %3, align 4
  ret i32 %48
}