; Function Attrs: nounwind uwtable
define internal range(i32 0, 2) i32 @pbe_test_init(ptr noundef writeonly captures(none) %0, ptr noundef %1) #1 {
  %3 = tail call i32 @strcmp(ptr noundef nonnull dereferenceable(1) %1, ptr noundef nonnull dereferenceable(7) @.str.412) #11
  %4 = icmp eq i32 %3, 0
  br i1 %4, label %12, label %5

5:                                                ; preds = %2
  %6 = tail call i32 @strcmp(ptr noundef nonnull dereferenceable(1) %1, ptr noundef nonnull dereferenceable(7) @.str.413) #11
  %7 = icmp eq i32 %6, 0
  br i1 %7, label %12, label %8

8:                                                ; preds = %5
  %9 = tail call i32 @strcmp(ptr noundef nonnull dereferenceable(1) %1, ptr noundef nonnull dereferenceable(7) @.str.414) #11
  %10 = icmp eq i32 %9, 0
  br i1 %10, label %12, label %11

11:                                               ; preds = %8
  tail call void (ptr, i32, ptr, ...) @test_error(ptr noundef nonnull @.str.29, i32 noundef 3109, ptr noundef nonnull @.str.415, ptr noundef nonnull %1) #10
  br label %17

12:                                               ; preds = %8, %5, %2
  %.0 = phi i32 [ 1, %2 ], [ 2, %5 ], [ 3, %8 ]
  %13 = tail call noalias ptr @CRYPTO_zalloc(i64 noundef 104, ptr noundef nonnull @.str.29, i32 noundef 3112) #10
  %14 = tail call i32 @test_ptr(ptr noundef nonnull @.str.29, i32 noundef 3112, ptr noundef nonnull @.str.416, ptr noundef %13) #10
  %.not = icmp eq i32 %14, 0
  br i1 %.not, label %17, label %15

15:                                               ; preds = %12
  store i32 %.0, ptr %13, align 8, !tbaa !268
  %16 = getelementptr inbounds nuw i8, ptr %0, i64 35272
  store ptr %13, ptr %16, align 8, !tbaa !20
  br label %17

17:                                               ; preds = %12, %15, %11
  %.011 = phi i32 [ 1, %15 ], [ 0, %11 ], [ 0, %12 ]
  ret i32 %.011
}